target datalayout = "e-m:e-p270:32:32-p271:32:32-p272:64:64-i64:64-i128:128-f80:128-n8:16:32:64-S128"
target triple = "x86_64-unknown-linux-gnu"

%"class.icu_75::SharedObject" = type { %"class.icu_75::UObject", i32, %"struct.std::atomic", ptr }
%"class.icu_75::UObject" = type { ptr }
%"struct.std::atomic" = type { %"struct.std::__atomic_base" }
%"struct.std::__atomic_base" = type { i32 }
%"class.icu_75::Locale" = type <{ %"class.icu_75::UObject", [12 x i8], [6 x i8], [4 x i8], [2 x i8], i32, [4 x i8], ptr, [157 x i8], [3 x i8], ptr, i8, [7 x i8] }>
%"struct.icu_75::UInitOnce" = type { %"struct.std::atomic", i32 }
%"struct.icu_75::CollationCacheEntry" = type { %"class.icu_75::SharedObject", %"class.icu_75::Locale", ptr }

@_ZN6icu_7512_GLOBAL__N_113rootSingletonE = internal global ptr null, align 8
@_ZN6icu_7512_GLOBAL__N_18initOnceE = internal global { { i32 }, i32 } zeroinitializer, align 4

; Function Attrs: mustprogress nounwind uwtable
define linkonce_odr noundef i32 @_ZStanSt12memory_orderSt23__memory_order_modifier(i32 noundef %__m, i32 noundef %__mod) #1 comdat {
entry:
  %__m.addr = alloca i32, align 4
  %__mod.addr = alloca i32, align 4
  store i32 %__m, ptr %__m.addr, align 4
  store i32 %__mod, ptr %__mod.addr, align 4
  %0 = load i32, ptr %__m.addr, align 4
  %1 = load i32, ptr %__mod.addr, align 4
  %and = and i32 %0, %1
  ret i32 %and
}

; Function Attrs: mustprogress nounwind uwtable
define linkonce_odr noundef i32 @_ZN6icu_7516umtx_loadAcquireERSt6atomicIiE(ptr noundef nonnull align 4 dereferenceable(4) %var) #1 comdat {
entry:
  %this.addr.i = alloca ptr, align 8
  %__m.addr.i = alloca i32, align 4
  %__b.i = alloca i32, align 4
  %atomic-temp.i = alloca i32, align 4
  %var.addr = alloca ptr, align 8
  store ptr %var, ptr %var.addr, align 8
  %0 = load ptr, ptr %var.addr, align 8
  store ptr %0, ptr %this.addr.i, align 8
  store i32 2, ptr %__m.addr.i, align 4
  %this1.i = load ptr, ptr %this.addr.i, align 8
  %1 = load i32, ptr %__m.addr.i, align 4
  %call.i = call noundef i32 @_ZStanSt12memory_orderSt23__memory_order_modifier(i32 noundef %1, i32 noundef 65535)
  store i32 %call.i, ptr %__b.i, align 4
  %2 = load i32, ptr %__m.addr.i, align 4
  switch i32 %2, label %monotonic.i [
    i32 1, label %acquire.i
    i32 2, label %acquire.i
    i32 5, label %seqcst.i
  ]

monotonic.i:                                      ; preds = %entry
  %3 = load atomic i32, ptr %this1.i monotonic, align 4
  store i32 %3, ptr %atomic-temp.i, align 4
  br label %_ZNKSt13__atomic_baseIiE4loadESt12memory_order.exit

acquire.i:                                        ; preds = %entry, %entry
  %4 = load atomic i32, ptr %this1.i acquire, align 4
  store i32 %4, ptr %atomic-temp.i, align 4
  br label %_ZNKSt13__atomic_baseIiE4loadESt12memory_order.exit

seqcst.i:                                         ; preds = %entry
  %5 = load atomic i32, ptr %this1.i seq_cst, align 4
  store i32 %5, ptr %atomic-temp.i, align 4
  br label %_ZNKSt13__atomic_baseIiE4loadESt12memory_order.exit

_ZNKSt13__atomic_baseIiE4loadESt12memory_order.exit: ; preds = %seqcst.i, %acquire.i, %monotonic.i
  %6 = load i32, ptr %atomic-temp.i, align 4
  ret i32 %6
}

; Function Attrs: mustprogress nounwind uwtable
define internal noundef signext i8 @_ZL9U_FAILURE10UErrorCode(i32 noundef %code) #1 {
entry:
  %code.addr = alloca i32, align 4
  store i32 %code, ptr %code.addr, align 4
  %0 = load i32, ptr %code.addr, align 4
  %cmp = icmp sgt i32 %0, 0
  %conv = zext i1 %cmp to i8
  ret i8 %conv
}

; Function Attrs: mustprogress uwtable
define linkonce_odr void @_ZN6icu_7513umtx_initOnceIPKcEEvRNS_9UInitOnceEPFvT_R10UErrorCodeES5_S7_(ptr noundef nonnull align 4 dereferenceable(8) %uio, ptr noundef %fp, ptr noundef %context, ptr noundef nonnull align 4 dereferenceable(4) %errCode) #0 comdat {
entry:
  %uio.addr = alloca ptr, align 8
  %fp.addr = alloca ptr, align 8
  %context.addr = alloca ptr, align 8
  %errCode.addr = alloca ptr, align 8
  store ptr %uio, ptr %uio.addr, align 8
  store ptr %fp, ptr %fp.addr, align 8
  store ptr %context, ptr %context.addr, align 8
  store ptr %errCode, ptr %errCode.addr, align 8
  %0 = load ptr, ptr %errCode.addr, align 8
  %1 = load i32, ptr %0, align 4
  %call = call noundef signext i8 @_ZL9U_FAILURE10UErrorCode(i32 noundef %1)
  %tobool = icmp ne i8 %call, 0
  br i1 %tobool, label %if.then, label %if.end

if.then:                                          ; preds = %entry
  br label %if.end11

if.end:                                           ; preds = %entry
  %2 = load ptr, ptr %uio.addr, align 8
  %fState = getelementptr inbounds %"struct.icu_75::UInitOnce", ptr %2, i32 0, i32 0
  %call1 = call noundef i32 @_ZN6icu_7516umtx_loadAcquireERSt6atomicIiE(ptr noundef nonnull align 4 dereferenceable(4) %fState)
  %cmp = icmp ne i32 %call1, 2
  br i1 %cmp, label %land.lhs.true, label %if.else

land.lhs.true:                                    ; preds = %if.end
  %3 = load ptr, ptr %uio.addr, align 8
  %call2 = call noundef signext i8 @_ZN6icu_7520umtx_initImplPreInitERNS_9UInitOnceE(ptr noundef nonnull align 4 dereferenceable(8) %3)
  %tobool3 = icmp ne i8 %call2, 0
  br i1 %tobool3, label %if.then4, label %if.else

if.then4:                                         ; preds = %land.lhs.true
  %4 = load ptr, ptr %fp.addr, align 8
  %5 = load ptr, ptr %context.addr, align 8
  %6 = load ptr, ptr %errCode.addr, align 8
  call void %4(ptr noundef %5, ptr noundef nonnull align 4 dereferenceable(4) %6)
  %7 = load ptr, ptr %errCode.addr, align 8
  %8 = load i32, ptr %7, align 4
  %9 = load ptr, ptr %uio.addr, align 8
  %fErrCode = getelementptr inbounds %"struct.icu_75::UInitOnce", ptr %9, i32 0, i32 1
  store i32 %8, ptr %fErrCode, align 4
  %10 = load ptr, ptr %uio.addr, align 8
  call void @_ZN6icu_7521umtx_initImplPostInitERNS_9UInitOnceE(ptr noundef nonnull align 4 dereferenceable(8) %10)
  br label %if.end11

if.else:                                          ; preds = %land.lhs.true, %if.end
  %11 = load ptr, ptr %uio.addr, align 8
  %fErrCode5 = getelementptr inbounds %"struct.icu_75::UInitOnce", ptr %11, i32 0, i32 1
  %12 = load i32, ptr %fErrCode5, align 4
  %call6 = call noundef signext i8 @_ZL9U_FAILURE10UErrorCode(i32 noundef %12)
  %tobool7 = icmp ne i8 %call6, 0
  br i1 %tobool7, label %if.then8, label %if.end10

if.then8:                                         ; preds = %if.else
  %13 = load ptr, ptr %uio.addr, align 8
  %fErrCode9 = getelementptr inbounds %"struct.icu_75::UInitOnce", ptr %13, i32 0, i32 1
  %14 = load i32, ptr %fErrCode9, align 4
  %15 = load ptr, ptr %errCode.addr, align 8
  store i32 %14, ptr %15, align 4
  br label %if.end10

if.end10:                                         ; preds = %if.then8, %if.else
  br label %if.end11

if.end11:                                         ; preds = %if.end10, %if.then4, %if.then
  ret void
}

; Function Attrs: mustprogress uwtable
define noundef ptr @_ZN6icu_7513CollationRoot7getRootER10UErrorCode(ptr noundef nonnull align 4 dereferenceable(4) %errorCode) #0 align 2 {
entry:
  %retval = alloca ptr, align 8
  %errorCode.addr = alloca ptr, align 8
  store ptr %errorCode, ptr %errorCode.addr, align 8
  %0 = load ptr, ptr %errorCode.addr, align 8
  call void @_ZN6icu_7513umtx_initOnceIPKcEEvRNS_9UInitOnceEPFvT_R10UErrorCodeES5_S7_(ptr noundef nonnull align 4 dereferenceable(8) @_ZN6icu_7512_GLOBAL__N_18initOnceE, ptr noundef @_ZN6icu_7513CollationRoot4loadEPKcR10UErrorCode, ptr noundef null, ptr noundef nonnull align 4 dereferenceable(4) %0)
  %1 = load ptr, ptr %errorCode.addr, align 8
  %2 = load i32, ptr %1, align 4
  %call = call noundef signext i8 @_ZL9U_FAILURE10UErrorCode(i32 noundef %2)
  %tobool = icmp ne i8 %call, 0
  br i1 %tobool, label %if.then, label %if.end

if.then:                                          ; preds = %entry
  store ptr null, ptr %retval, align 8
  br label %return

if.end:                                           ; preds = %entry
  %3 = load ptr, ptr @_ZN6icu_7512_GLOBAL__N_113rootSingletonE, align 8
  %tailoring = getelementptr inbounds %"struct.icu_75::CollationCacheEntry", ptr %3, i32 0, i32 2
  %4 = load ptr, ptr %tailoring, align 8
  store ptr %4, ptr %retval, align 8
  br label %return

return:                                           ; preds = %if.end, %if.then
  %5 = load ptr, ptr %retval, align 8
  ret ptr %5
}